EXPORTS
??0BasicStatStructFieldDesc@@QEAA@$$QEAV0@@Z=tier0_orig.??0BasicStatStructFieldDesc@@QEAA@$$QEAV0@@Z @1
??0BasicStatStructFieldDesc@@QEAA@AEBV0@@Z=tier0_orig.??0BasicStatStructFieldDesc@@QEAA@AEBV0@@Z @2
??0BasicStatStructFieldDesc@@QEAA@W4BasicStatStructFieldTypes_t@@W4BasicStatStructFieldCombineMethods_t@@@Z=tier0_orig.??0BasicStatStructFieldDesc@@QEAA@W4BasicStatStructFieldTypes_t@@W4BasicStatStructFieldCombineMethods_t@@@Z @3
??0CCallStackStorage@@QEAA@AEBV0@@Z=tier0_orig.??0CCallStackStorage@@QEAA@AEBV0@@Z @4
??0CCallStackStorage@@QEAA@P6AHPEAPEAXHH@ZI@Z=tier0_orig.??0CCallStackStorage@@QEAA@P6AHPEAPEAXHH@ZI@Z @5
??0CStackTop_CopyParentStack@@QEAA@PEBQEAXH@Z=tier0_orig.??0CStackTop_CopyParentStack@@QEAA@PEBQEAXH@Z @6
??0CStackTop_ReferenceParentStack@@QEAA@PEBQEAXH@Z=tier0_orig.??0CStackTop_ReferenceParentStack@@QEAA@PEBQEAXH@Z @7
??0CTestCase@@QEAA@AEBV0@@Z=tier0_orig.??0CTestCase@@QEAA@AEBV0@@Z @8
??0CTestCase@@QEAA@PEBDPEAVITestSuite@@@Z=tier0_orig.??0CTestCase@@QEAA@PEBDPEAVITestSuite@@@Z @9
??0CTestSuite@@QEAA@AEBV0@@Z=tier0_orig.??0CTestSuite@@QEAA@AEBV0@@Z @10
??0CTestSuite@@QEAA@PEBDPEAVITestSuite@@@Z=tier0_orig.??0CTestSuite@@QEAA@PEBDPEAVITestSuite@@@Z @11
??0CThread@@QEAA@XZ=tier0_orig.??0CThread@@QEAA@XZ @12
??0CThreadEvent@@QEAA@PEBD_N1@Z=tier0_orig.??0CThreadEvent@@QEAA@PEBD_N1@Z @13
??0CThreadEvent@@QEAA@_N@Z=tier0_orig.??0CThreadEvent@@QEAA@_N@Z @14
??0CThreadFullMutex@@QEAA@_NPEBD@Z=tier0_orig.??0CThreadFullMutex@@QEAA@_NPEBD@Z @15
??0CThreadLocalBase@GenericThreadLocals@@QEAA@XZ=tier0_orig.??0CThreadLocalBase@GenericThreadLocals@@QEAA@XZ @16
??0CThreadMutex@@QEAA@XZ=tier0_orig.??0CThreadMutex@@QEAA@XZ @17
??0CThreadRWLock@@QEAA@XZ=tier0_orig.??0CThreadRWLock@@QEAA@XZ @18
??0CThreadSemaphore@@QEAA@HH@Z=tier0_orig.??0CThreadSemaphore@@QEAA@HH@Z @19
??0CThreadSpinRWLock@@QEAA@XZ=tier0_orig.??0CThreadSpinRWLock@@QEAA@XZ @20
??0CThreadSyncObject@@IEAA@XZ=tier0_orig.??0CThreadSyncObject@@IEAA@XZ @21
??0CWorkerThread@@QEAA@XZ=tier0_orig.??0CWorkerThread@@QEAA@XZ @22
??0CallStackStatStructDescFuncs@@QEAA@$$QEAV0@@Z=tier0_orig.??0CallStackStatStructDescFuncs@@QEAA@$$QEAV0@@Z @23
??0CallStackStatStructDescFuncs@@QEAA@AEBV0@@Z=tier0_orig.??0CallStackStatStructDescFuncs@@QEAA@AEBV0@@Z @24
??0CallStackStatStructDescFuncs@@QEAA@XZ=tier0_orig.??0CallStackStatStructDescFuncs@@QEAA@XZ @25
??0ITestCase@@QEAA@AEBV0@@Z=tier0_orig.??0ITestCase@@QEAA@AEBV0@@Z @26
??0ITestCase@@QEAA@XZ=tier0_orig.??0ITestCase@@QEAA@XZ @27
??0ITestSuite@@QEAA@$$QEAV0@@Z=tier0_orig.??0ITestSuite@@QEAA@$$QEAV0@@Z @28
??0ITestSuite@@QEAA@AEBV0@@Z=tier0_orig.??0ITestSuite@@QEAA@AEBV0@@Z @29
??0ITestSuite@@QEAA@XZ=tier0_orig.??0ITestSuite@@QEAA@XZ @30
??1CStackTop_CopyParentStack@@QEAA@XZ=tier0_orig.??1CStackTop_CopyParentStack@@QEAA@XZ @31
??1CStackTop_ReferenceParentStack@@QEAA@XZ=tier0_orig.??1CStackTop_ReferenceParentStack@@QEAA@XZ @32
??1CTestCase@@UEAA@XZ=tier0_orig.??1CTestCase@@UEAA@XZ @33
??1CTestSuite@@UEAA@XZ=tier0_orig.??1CTestSuite@@UEAA@XZ @34
??1CThread@@UEAA@XZ=tier0_orig.??1CThread@@UEAA@XZ @35
??1CThreadEvent@@QEAA@XZ=tier0_orig.??1CThreadEvent@@QEAA@XZ @36
??1CThreadFullMutex@@QEAA@XZ=tier0_orig.??1CThreadFullMutex@@QEAA@XZ @37
??1CThreadLocalBase@GenericThreadLocals@@QEAA@XZ=tier0_orig.??1CThreadLocalBase@GenericThreadLocals@@QEAA@XZ @38
??1CThreadMutex@@QEAA@XZ=tier0_orig.??1CThreadMutex@@QEAA@XZ @39
??1CThreadRWLock@@QEAA@XZ=tier0_orig.??1CThreadRWLock@@QEAA@XZ @40
??1CThreadSemaphore@@QEAA@XZ=tier0_orig.??1CThreadSemaphore@@QEAA@XZ @41
??1CThreadSyncObject@@QEAA@XZ=tier0_orig.??1CThreadSyncObject@@QEAA@XZ @42
??1CWorkerThread@@UEAA@XZ=tier0_orig.??1CWorkerThread@@UEAA@XZ @43
??1ITestCase@@UEAA@XZ=tier0_orig.??1ITestCase@@UEAA@XZ @44
??1ITestSuite@@UEAA@XZ=tier0_orig.??1ITestSuite@@UEAA@XZ @45
??2?$CAlignedNewDelete@$07Ualigned_tmp_t@@@@SAPEAX_K@Z=tier0_orig.??2?$CAlignedNewDelete@$07Ualigned_tmp_t@@@@SAPEAX_K@Z @46
??2?$CAlignedNewDelete@$07Ualigned_tmp_t@@@@SAPEAX_KHPEBDH@Z=tier0_orig.??2?$CAlignedNewDelete@$07Ualigned_tmp_t@@@@SAPEAX_KHPEBDH@Z @47
??3?$CAlignedNewDelete@$07Ualigned_tmp_t@@@@SAXPEAX@Z=tier0_orig.??3?$CAlignedNewDelete@$07Ualigned_tmp_t@@@@SAXPEAX@Z @48
??3?$CAlignedNewDelete@$07Ualigned_tmp_t@@@@SAXPEAXHPEBDH@Z=tier0_orig.??3?$CAlignedNewDelete@$07Ualigned_tmp_t@@@@SAXPEAXHPEBDH@Z @49
??4?$CAlignedNewDelete@$07Ualigned_tmp_t@@@@QEAAAEAV0@$$QEAV0@@Z=tier0_orig.??4?$CAlignedNewDelete@$07Ualigned_tmp_t@@@@QEAAAEAV0@$$QEAV0@@Z @50
??4?$CAlignedNewDelete@$07Ualigned_tmp_t@@@@QEAAAEAV0@AEBV0@@Z=tier0_orig.??4?$CAlignedNewDelete@$07Ualigned_tmp_t@@@@QEAAAEAV0@AEBV0@@Z @51
??4BasicStatStructFieldDesc@@QEAAAEAV0@$$QEAV0@@Z=tier0_orig.??4BasicStatStructFieldDesc@@QEAAAEAV0@$$QEAV0@@Z @52
??4BasicStatStructFieldDesc@@QEAAAEAV0@AEBV0@@Z=tier0_orig.??4BasicStatStructFieldDesc@@QEAAAEAV0@AEBV0@@Z @53
??4CCallStackStorage@@QEAAAEAV0@AEBV0@@Z=tier0_orig.??4CCallStackStorage@@QEAAAEAV0@AEBV0@@Z @54
??4CStackTop_Base@@QEAAAEAV0@$$QEAV0@@Z=tier0_orig.??4CStackTop_Base@@QEAAAEAV0@$$QEAV0@@Z @55
??4CStackTop_Base@@QEAAAEAV0@AEBV0@@Z=tier0_orig.??4CStackTop_Base@@QEAAAEAV0@AEBV0@@Z @56
??4CStackTop_CopyParentStack@@QEAAAEAV0@AEBV0@@Z=tier0_orig.??4CStackTop_CopyParentStack@@QEAAAEAV0@AEBV0@@Z @57
??4CStackTop_ReferenceParentStack@@QEAAAEAV0@AEBV0@@Z=tier0_orig.??4CStackTop_ReferenceParentStack@@QEAAAEAV0@AEBV0@@Z @58
??4CTestCase@@QEAAAEAV0@AEBV0@@Z=tier0_orig.??4CTestCase@@QEAAAEAV0@AEBV0@@Z @59
??4CTestSuite@@QEAAAEAV0@AEBV0@@Z=tier0_orig.??4CTestSuite@@QEAAAEAV0@AEBV0@@Z @60
??4CThreadLocalBase@GenericThreadLocals@@QEAAAEAV01@AEBV01@@Z=tier0_orig.??4CThreadLocalBase@GenericThreadLocals@@QEAAAEAV01@AEBV01@@Z @61
??4CThreadSpinRWLock@@QEAAAEAV0@$$QEAV0@@Z=tier0_orig.??4CThreadSpinRWLock@@QEAAAEAV0@$$QEAV0@@Z @62
??4CThreadSpinRWLock@@QEAAAEAV0@AEBV0@@Z=tier0_orig.??4CThreadSpinRWLock@@QEAAAEAV0@AEBV0@@Z @63
??4CallStackStatStructDescFuncs@@QEAAAEAV0@$$QEAV0@@Z=tier0_orig.??4CallStackStatStructDescFuncs@@QEAAAEAV0@$$QEAV0@@Z @64
??4CallStackStatStructDescFuncs@@QEAAAEAV0@AEBV0@@Z=tier0_orig.??4CallStackStatStructDescFuncs@@QEAAAEAV0@AEBV0@@Z @65
??4ITestCase@@QEAAAEAV0@AEBV0@@Z=tier0_orig.??4ITestCase@@QEAAAEAV0@AEBV0@@Z @66
??4ITestSuite@@QEAAAEAV0@$$QEAV0@@Z=tier0_orig.??4ITestSuite@@QEAAAEAV0@$$QEAV0@@Z @67
??4ITestSuite@@QEAAAEAV0@AEBV0@@Z=tier0_orig.??4ITestSuite@@QEAAAEAV0@AEBV0@@Z @68
??7CThreadSyncObject@@QEBA_NXZ=tier0_orig.??7CThreadSyncObject@@QEBA_NXZ @69
??BCThreadSyncObject@@QEAAPEAXXZ=tier0_orig.??BCThreadSyncObject@@QEAAPEAXXZ @70
??_7BasicStatStructFieldDesc@@6B@=tier0_orig.??_7BasicStatStructFieldDesc@@6B@ @71
??_7CTestCase@@6B@=tier0_orig.??_7CTestCase@@6B@ @72
??_7CTestSuite@@6B@=tier0_orig.??_7CTestSuite@@6B@ @73
??_7CThread@@6B@=tier0_orig.??_7CThread@@6B@ @74
??_7CWorkerThread@@6B@=tier0_orig.??_7CWorkerThread@@6B@ @75
??_7CallStackStatStructDescFuncs@@6B@=tier0_orig.??_7CallStackStatStructDescFuncs@@6B@ @76
??_7ITestCase@@6B@=tier0_orig.??_7ITestCase@@6B@ @77
??_7ITestSuite@@6B@=tier0_orig.??_7ITestSuite@@6B@ @78
??_FCCallStackStorage@@QEAAXXZ=tier0_orig.??_FCCallStackStorage@@QEAAXXZ @79
??_FCStackTop_ReferenceParentStack@@QEAAXXZ=tier0_orig.??_FCStackTop_ReferenceParentStack@@QEAAXXZ @80
??_FCThreadEvent@@QEAAXXZ=tier0_orig.??_FCThreadEvent@@QEAAXXZ @81
??_FCThreadFullMutex@@QEAAXXZ=tier0_orig.??_FCThreadFullMutex@@QEAAXXZ @82
?AddTest@CTestSuite@@UEAAXPEAVITestCase@@@Z=tier0_orig.?AddTest@CTestSuite@@UEAAXPEAVITestCase@@@Z @83
?AssertOwnedByCurrentThread@CThreadFullMutex@@QEAA_NXZ=tier0_orig.?AssertOwnedByCurrentThread@CThreadFullMutex@@QEAA_NXZ @84
?AssertOwnedByCurrentThread@CThreadMutex@@QEAA_NXZ=tier0_orig.?AssertOwnedByCurrentThread@CThreadMutex@@QEAA_NXZ @85
?AssertUseable@CThreadSyncObject@@IEAAXXZ=tier0_orig.?AssertUseable@CThreadSyncObject@@IEAAXXZ @86
?BoostPriority@CWorkerThread@@QEAAHXZ=tier0_orig.?BoostPriority@CWorkerThread@@QEAAHXZ @87
?CalcStackDepth@CThread@@QEAA_KPEAX@Z=tier0_orig.?CalcStackDepth@CThread@@QEAA_KPEAX@Z @88
?Call@CWorkerThread@@IEAAHII_NP6AIIPEAPEAVCThreadEvent@@HI@Z@Z=tier0_orig.?Call@CWorkerThread@@IEAAHII_NP6AIIPEAPEAVCThreadEvent@@HI@Z@Z @89
?CallMaster@CWorkerThread@@QEAAHII@Z=tier0_orig.?CallMaster@CWorkerThread@@QEAAHII@Z @90
?CallWorker@CWorkerThread@@QEAAHII_N@Z=tier0_orig.?CallWorker@CWorkerThread@@QEAAHII_N@Z @91
?Check@CThreadEvent@@QEAA_NXZ=tier0_orig.?Check@CThreadEvent@@QEAA_NXZ @92
?CheckNamedEvent@CThreadEvent@@SA?AW4NamedEventResult_t@@PEBDI@Z=tier0_orig.?CheckNamedEvent@CThreadEvent@@SA?AW4NamedEventResult_t@@PEBDI@Z @93
?ConColorMsg@@YAXAEBVColor@@PEBDZZ=tier0_orig.?ConColorMsg@@YAXAEBVColor@@PEBDZZ @94
?ConMsg@@YAXPEBDZZ=tier0_orig.?ConMsg@@YAXPEBDZZ @95
?DescribeField@BasicStatStructFieldDesc@@UEAA_KPEAE_K@Z=tier0_orig.?DescribeField@BasicStatStructFieldDesc@@UEAA_KPEAE_K@Z @96
?DevMsg@@YAXPEBDZZ=tier0_orig.?DevMsg@@YAXPEBDZZ @97
?DevWarning@@YAXPEBDZZ=tier0_orig.?DevWarning@@YAXPEBDZZ @98
?Get@CThreadLocalBase@GenericThreadLocals@@QEBAPEAXXZ=tier0_orig.?Get@CThreadLocalBase@GenericThreadLocals@@QEBAPEAXXZ @99
?GetCallHandle@CWorkerThread@@QEAAAEAVCThreadEvent@@XZ=tier0_orig.?GetCallHandle@CWorkerThread@@QEAAAEAVCThreadEvent@@XZ @100
?GetCallParam@CWorkerThread@@QEBAIXZ=tier0_orig.?GetCallParam@CWorkerThread@@QEBAIXZ @101
?GetCurrentCThread@CThread@@SAPEAV1@XZ=tier0_orig.?GetCurrentCThread@CThread@@SAPEAV1@XZ @102
?GetHandle@CThreadSyncObject@@QEBAQEAXXZ=tier0_orig.?GetHandle@CThreadSyncObject@@QEBAQEAXXZ @103
?GetName@CTestCase@@UEAAPEBDXZ=tier0_orig.?GetName@CTestCase@@UEAAPEBDXZ @104
?GetName@CTestSuite@@UEAAPEBDXZ=tier0_orig.?GetName@CTestSuite@@UEAAPEBDXZ @105
?GetName@CThread@@QEAAPEBDXZ=tier0_orig.?GetName@CThread@@QEAAPEBDXZ @106
?GetPriority@CThread@@QEBAHXZ=tier0_orig.?GetPriority@CThread@@QEBAHXZ @107
?GetResult@CThread@@QEAAHXZ=tier0_orig.?GetResult@CThread@@QEAAHXZ @108
?GetThreadHandle@CThread@@IEBAQEAUThreadHandle_t__@@XZ=tier0_orig.?GetThreadHandle@CThread@@IEBAQEAUThreadHandle_t__@@XZ @109
?GetThreadHandle@CThread@@QEAAPEAUThreadHandle_t__@@XZ=tier0_orig.?GetThreadHandle@CThread@@QEAAPEAUThreadHandle_t__@@XZ @110
?GetThreadID@CThread@@IEBA?BIXZ=tier0_orig.?GetThreadID@CThread@@IEBA?BIXZ @111
?GetThreadProc@CThread@@MEAAP6AKPEAX@ZXZ=tier0_orig.?GetThreadProc@CThread@@MEAAP6AKPEAX@ZXZ @112
?Init@CThread@@MEAA_NXZ=tier0_orig.?Init@CThread@@MEAA_NXZ @113
?IsAlive@CThread@@QEAA_NXZ=tier0_orig.?IsAlive@CThread@@QEAA_NXZ @114
?IsLockedForRead@CThreadSpinRWLock@@QEAA_NXZ=tier0_orig.?IsLockedForRead@CThreadSpinRWLock@@QEAA_NXZ @115
?IsLockedForWrite@CThreadSpinRWLock@@QEAA_NXZ=tier0_orig.?IsLockedForWrite@CThreadSpinRWLock@@QEAA_NXZ @116
?IsSuspended@CThread@@QEAA_NXZ=tier0_orig.?IsSuspended@CThread@@QEAA_NXZ @117
?Join@CThread@@QEAA_NI@Z=tier0_orig.?Join@CThread@@QEAA_NI@Z @118
?Lock@CThreadFullMutex@@QEAAXI@Z=tier0_orig.?Lock@CThreadFullMutex@@QEAAXI@Z @119
?Lock@CThreadFullMutex@@QEAAXXZ=tier0_orig.?Lock@CThreadFullMutex@@QEAAXXZ @120
?Lock@CThreadMutex@@QEAAXXZ=tier0_orig.?Lock@CThreadMutex@@QEAAXXZ @121
?Lock@CThreadMutex@@QEBAXXZ=tier0_orig.?Lock@CThreadMutex@@QEBAXXZ @122
?LockForRead@CThreadRWLock@@QEAAXXZ=tier0_orig.?LockForRead@CThreadRWLock@@QEAAXXZ @123
?LockForRead@CThreadRWLock@@QEBAXXZ=tier0_orig.?LockForRead@CThreadRWLock@@QEBAXXZ @124
?LockForRead@CThreadSpinRWLock@@QEAAXXZ=tier0_orig.?LockForRead@CThreadSpinRWLock@@QEAAXXZ @125
?LockForRead@CThreadSpinRWLock@@QEBAXXZ=tier0_orig.?LockForRead@CThreadSpinRWLock@@QEBAXXZ @126
?LockForWrite@CThreadRWLock@@QEAAXXZ=tier0_orig.?LockForWrite@CThreadRWLock@@QEAAXXZ @127
?LockForWrite@CThreadRWLock@@QEBAXXZ=tier0_orig.?LockForWrite@CThreadRWLock@@QEBAXXZ @128
?LockForWrite@CThreadSpinRWLock@@QEAAXXZ=tier0_orig.?LockForWrite@CThreadSpinRWLock@@QEAAXXZ @129
?LockForWrite@CThreadSpinRWLock@@QEBAXXZ=tier0_orig.?LockForWrite@CThreadSpinRWLock@@QEBAXXZ @130
?LockSilent@CThreadMutex@@QEAAXXZ=tier0_orig.?LockSilent@CThreadMutex@@QEAAXXZ @131
?LoggingSystem_Log@@YA?AW4LoggingResponse_t@@HW4LoggingSeverity_t@@VColor@@PEBDZZ=tier0_orig.?LoggingSystem_Log@@YA?AW4LoggingResponse_t@@HW4LoggingSeverity_t@@VColor@@PEBDZZ @132
?OnExit@CThread@@MEAAXXZ=tier0_orig.?OnExit@CThread@@MEAAXXZ @133
?PeekCall@CWorkerThread@@QEAA_NPEAI@Z=tier0_orig.?PeekCall@CWorkerThread@@QEAA_NPEAI@Z @134
?Release@CThreadFullMutex@@QEAA_NXZ=tier0_orig.?Release@CThreadFullMutex@@QEAA_NXZ @135
?Release@CThreadSemaphore@@QEAA_NHPEAH@Z=tier0_orig.?Release@CThreadSemaphore@@QEAA_NHPEAH@Z @136
?ReleaseParentStackReferences@CStackTop_ReferenceParentStack@@QEAAXXZ=tier0_orig.?ReleaseParentStackReferences@CStackTop_ReferenceParentStack@@QEAAXXZ @137
?ReleaseWaiter@CThreadFastMutexSlow@@AEAAXXZ=tier0_orig.?ReleaseWaiter@CThreadFastMutexSlow@@AEAAXXZ @138
?Reply@CWorkerThread@@QEAAXI@Z=tier0_orig.?Reply@CWorkerThread@@QEAAXI@Z @139
?Reset@CThreadEvent@@QEAA_NXZ=tier0_orig.?Reset@CThreadEvent@@QEAA_NXZ @140
?Resume@CThread@@QEAAIXZ=tier0_orig.?Resume@CThread@@QEAAIXZ @141
?RunTest@CTestSuite@@UEAAXXZ=tier0_orig.?RunTest@CTestSuite@@UEAAXXZ @142
?Set@CThreadEvent@@QEAA_NXZ=tier0_orig.?Set@CThreadEvent@@QEAA_NXZ @143
?Set@CThreadLocalBase@GenericThreadLocals@@QEAAXPEAX@Z=tier0_orig.?Set@CThreadLocalBase@GenericThreadLocals@@QEAAXPEAX@Z @144
?SetName@CThread@@QEAAXPEBD@Z=tier0_orig.?SetName@CThread@@QEAAXPEBD@Z @145
?SetPriority@CThread@@QEAA_NH@Z=tier0_orig.?SetPriority@CThread@@QEAA_NH@Z @146
?SetTrace@CThreadFullMutex@@QEAAX_N@Z=tier0_orig.?SetTrace@CThreadFullMutex@@QEAAX_N@Z @147
?SetTrace@CThreadMutex@@QEAAX_N@Z=tier0_orig.?SetTrace@CThreadMutex@@QEAAX_N@Z @148
?ShutdownSemaphore@CThreadFastMutexSlow@@AEAAXXZ=tier0_orig.?ShutdownSemaphore@CThreadFastMutexSlow@@AEAAXXZ @149
?Sleep@CThread@@SAXI@Z=tier0_orig.?Sleep@CThread@@SAXI@Z @150
?SpinLockForRead@CThreadSpinRWLock@@QEAAXXZ=tier0_orig.?SpinLockForRead@CThreadSpinRWLock@@QEAAXXZ @151
?SpinLockForWrite@CThreadSpinRWLock@@QEAAXXZ=tier0_orig.?SpinLockForWrite@CThreadSpinRWLock@@QEAAXXZ @152
?Start@CThread@@UEAA_N_KW4ThreadPriorityEnum_t@1@@Z=tier0_orig.?Start@CThread@@UEAA_N_KW4ThreadPriorityEnum_t@1@@Z @153
?Stop@CThread@@QEAAXH@Z=tier0_orig.?Stop@CThread@@QEAAXH@Z @154
?Suspend@CThread@@QEAAIXZ=tier0_orig.?Suspend@CThread@@QEAAIXZ @155
?Terminate@CThread@@QEAA_NH@Z=tier0_orig.?Terminate@CThread@@QEAA_NH@Z @156
?ThreadProc@CThread@@KAKPEAX@Z=tier0_orig.?ThreadProc@CThread@@KAKPEAX@Z @157
?TryLock@CThreadMutex@@QEAA_NXZ=tier0_orig.?TryLock@CThreadMutex@@QEAA_NXZ @158
?TryLock@CThreadMutex@@QEBA_NXZ=tier0_orig.?TryLock@CThreadMutex@@QEBA_NXZ @159
?TryLockForRead@CThreadSpinRWLock@@QEAA_NXZ=tier0_orig.?TryLockForRead@CThreadSpinRWLock@@QEAA_NXZ @160
?TryLockForRead@CThreadSpinRWLock@@QEBA_NXZ=tier0_orig.?TryLockForRead@CThreadSpinRWLock@@QEBA_NXZ @161
?TryLockForRead_UnforcedInline@CThreadSpinRWLock@@QEAA_NXZ=tier0_orig.?TryLockForRead_UnforcedInline@CThreadSpinRWLock@@QEAA_NXZ @162
?TryLockForWrite@CThreadSpinRWLock@@QEAA_NXZ=tier0_orig.?TryLockForWrite@CThreadSpinRWLock@@QEAA_NXZ @163
?TryLockForWrite@CThreadSpinRWLock@@QEBA_NXZ=tier0_orig.?TryLockForWrite@CThreadSpinRWLock@@QEBA_NXZ @164
?TryLockForWrite_UnforcedInline@CThreadSpinRWLock@@QEAA_NXZ=tier0_orig.?TryLockForWrite_UnforcedInline@CThreadSpinRWLock@@QEAA_NXZ @165
?Unlock@CThreadFullMutex@@QEAAXXZ=tier0_orig.?Unlock@CThreadFullMutex@@QEAAXXZ @166
?Unlock@CThreadMutex@@QEAAXXZ=tier0_orig.?Unlock@CThreadMutex@@QEAAXXZ @167
?Unlock@CThreadMutex@@QEBAXXZ=tier0_orig.?Unlock@CThreadMutex@@QEBAXXZ @168
?UnlockRead@CThreadRWLock@@QEAAXXZ=tier0_orig.?UnlockRead@CThreadRWLock@@QEAAXXZ @169
?UnlockRead@CThreadRWLock@@QEBAXXZ=tier0_orig.?UnlockRead@CThreadRWLock@@QEBAXXZ @170
?UnlockRead@CThreadSpinRWLock@@QEAAXXZ=tier0_orig.?UnlockRead@CThreadSpinRWLock@@QEAAXXZ @171
?UnlockRead@CThreadSpinRWLock@@QEBAXXZ=tier0_orig.?UnlockRead@CThreadSpinRWLock@@QEBAXXZ @172
?UnlockSilent@CThreadMutex@@QEAAXXZ=tier0_orig.?UnlockSilent@CThreadMutex@@QEAAXXZ @173
?UnlockWrite@CThreadRWLock@@QEAAXXZ=tier0_orig.?UnlockWrite@CThreadRWLock@@QEAAXXZ @174
?UnlockWrite@CThreadRWLock@@QEBAXXZ=tier0_orig.?UnlockWrite@CThreadRWLock@@QEBAXXZ @175
?UnlockWrite@CThreadSpinRWLock@@QEAAXXZ=tier0_orig.?UnlockWrite@CThreadSpinRWLock@@QEAAXXZ @176
?UnlockWrite@CThreadSpinRWLock@@QEBAXXZ=tier0_orig.?UnlockWrite@CThreadSpinRWLock@@QEBAXXZ @177
?Wait@CThreadEvent@@QEAA_NI@Z=tier0_orig.?Wait@CThreadEvent@@QEAA_NI@Z @178
?Wait@CThreadSyncObject@@QEAA_NI@Z=tier0_orig.?Wait@CThreadSyncObject@@QEAA_NI@Z @179
?WaitForCall@CWorkerThread@@QEAA_NIPEAI@Z=tier0_orig.?WaitForCall@CWorkerThread@@QEAA_NIPEAI@Z @180
?WaitForCall@CWorkerThread@@QEAA_NPEAI@Z=tier0_orig.?WaitForCall@CWorkerThread@@QEAA_NPEAI@Z @181
?WaitForCreateComplete@CThread@@MEAA_NPEAVCThreadEvent@@@Z=tier0_orig.?WaitForCreateComplete@CThread@@MEAA_NPEAVCThreadEvent@@@Z @182
?WaitForLock@CThreadFastMutexSlow@@AEAAII@Z=tier0_orig.?WaitForLock@CThreadFastMutexSlow@@AEAAII@Z @183
?WaitForMultiple@CThreadEvent@@SAIHPEAPEAV1@_NI@Z=tier0_orig.?WaitForMultiple@CThreadEvent@@SAIHPEAPEAV1@_NI@Z @184
?WaitForMultiple@CThreadEvent@@SAIHPEAV1@_NI@Z=tier0_orig.?WaitForMultiple@CThreadEvent@@SAIHPEAV1@_NI@Z @185
?WaitForMultiple@CThreadSyncObject@@SAIHPEAPEAV1@_NI@Z=tier0_orig.?WaitForMultiple@CThreadSyncObject@@SAIHPEAPEAV1@_NI@Z @186
?WaitForMultiple@CThreadSyncObject@@SAIHPEAV1@_NI@Z=tier0_orig.?WaitForMultiple@CThreadSyncObject@@SAIHPEAV1@_NI@Z @187
?WaitForRead@CThreadRWLock@@AEAAXXZ=tier0_orig.?WaitForRead@CThreadRWLock@@AEAAXXZ @188
?WaitForReply@CWorkerThread@@IEAAHIP6AIIPEAPEAVCThreadEvent@@HI@Z@Z=tier0_orig.?WaitForReply@CWorkerThread@@IEAAHIP6AIIPEAPEAVCThreadEvent@@HI@Z@Z @189
?WaitForReply@CWorkerThread@@QEAAHI@Z=tier0_orig.?WaitForReply@CWorkerThread@@QEAAHI@Z @190
?Yield@CThread@@SAXXZ=tier0_orig.?Yield@CThread@@SAXXZ @191
?g_bInException@@3_NA=tier0_orig.?g_bInException@@3_NA @192
?g_nThreadID@@3V?$CThreadLocalInt@H@GenericThreadLocals@@A=tier0_orig.?g_nThreadID@@3V?$CThreadLocalInt@H@GenericThreadLocals@@A @193
AllocateThreadID=tier0_orig.AllocateThreadID @194
AreAllAssertsDisabled=tier0_orig.AreAllAssertsDisabled @195
BeginAssertHandling=tier0_orig.BeginAssertHandling @196
COM_TimestampedLog=tier0_orig.COM_TimestampedLog @197
CatchAndWriteMiniDump=tier0_orig.CatchAndWriteMiniDump @198
ClearHardwareBreakpoint=tier0_orig.ClearHardwareBreakpoint @199
CommandLine=tier0_orig.CommandLine @200
ConDMsg=tier0_orig.ConDMsg @201
CrackSmokingCompiler=tier0_orig.CrackSmokingCompiler @202
CreateSimpleThread=tier0_orig.CreateSimpleThread @203
DeclareCurrentThreadIsMainThread=tier0_orig.DeclareCurrentThreadIsMainThread @204
DecodeBinaryFromString=tier0_orig.DecodeBinaryFromString @205
DevMsg=tier0_orig.DevMsg @206
DevWarning=tier0_orig.DevWarning @207
DoNewAssertDialog=tier0_orig.DoNewAssertDialog @208
EncodeBinaryToString=tier0_orig.EncodeBinaryToString @209
EndAssertHandling=tier0_orig.EndAssertHandling @210
Error=tier0_orig.Error @211
ErrorCountGet=tier0_orig.ErrorCountGet @212
ErrorCountReset=tier0_orig.ErrorCountReset @213
Error_SpewCallStack=tier0_orig.Error_SpewCallStack @214
FreeThreadID=tier0_orig.FreeThreadID @215
GetCPUInformation=tier0_orig.GetCPUInformation @216
GetCallStack=tier0_orig.GetCallStack @217
GetCallStack_Fast=tier0_orig.GetCallStack_Fast @218
GetCurrentDate=tier0_orig.GetCurrentDate @219
GetCurrentDayOfTheWeek=tier0_orig.GetCurrentDayOfTheWeek @220
GetCurrentDayOfTheYear=tier0_orig.GetCurrentDayOfTheYear @221
GetFileAndLineFromAddress=tier0_orig.GetFileAndLineFromAddress @222
GetMinidumpBreakRequested=tier0_orig.GetMinidumpBreakRequested @223
GetModuleNameFromAddress=tier0_orig.GetModuleNameFromAddress @224
GetSymbolNameFromAddress=tier0_orig.GetSymbolNameFromAddress @225
GetTFOEnvironment=tier0_orig.GetTFOEnvironment @226
GetTFOFileLogLevel=tier0_orig.GetTFOFileLogLevel @227
GetTFOFileLogger=tier0_orig.GetTFOFileLogger @228
GetTFOLoadingSplash=tier0_orig.GetTFOLoadingSplash @229
GetThreadedLoadLibraryFunc=tier0_orig.GetThreadedLoadLibraryFunc @230
GetUnitTest=tier0_orig.GetUnitTest @231
GetVAtom=tier0_orig.GetVAtom @232
InitPME=tier0_orig.InitPME @233
InitWin32ConsoleColorContext=tier0_orig.InitWin32ConsoleColorContext @234
InstallProgressReportHandler=tier0_orig.InstallProgressReportHandler @235
IsKitOutsideOfStudioLAN=tier0_orig.IsKitOutsideOfStudioLAN @236
LoggingSystem_AddTagToCurrentChannel=tier0_orig.LoggingSystem_AddTagToCurrentChannel @237
LoggingSystem_FindChannel=tier0_orig.LoggingSystem_FindChannel @238
LoggingSystem_GetChannel=tier0_orig.LoggingSystem_GetChannel @239
LoggingSystem_GetChannelColor=tier0_orig.LoggingSystem_GetChannelColor @240
LoggingSystem_GetChannelCount=tier0_orig.LoggingSystem_GetChannelCount @241
LoggingSystem_GetChannelFlags=tier0_orig.LoggingSystem_GetChannelFlags @242
LoggingSystem_GetFirstChannelID=tier0_orig.LoggingSystem_GetFirstChannelID @243
LoggingSystem_GetNextChannelID=tier0_orig.LoggingSystem_GetNextChannelID @244
LoggingSystem_HasTag=tier0_orig.LoggingSystem_HasTag @245
LoggingSystem_IsChannelEnabled=tier0_orig.LoggingSystem_IsChannelEnabled @246
LoggingSystem_Log=tier0_orig.LoggingSystem_Log @247
LoggingSystem_LogAssert=tier0_orig.LoggingSystem_LogAssert @248
LoggingSystem_LogDirect=tier0_orig.LoggingSystem_LogDirect @249
LoggingSystem_PopLoggingState=tier0_orig.LoggingSystem_PopLoggingState @250
LoggingSystem_PushLoggingState=tier0_orig.LoggingSystem_PushLoggingState @251
LoggingSystem_RegisterLoggingChannel=tier0_orig.LoggingSystem_RegisterLoggingChannel @252
LoggingSystem_RegisterLoggingListener=tier0_orig.LoggingSystem_RegisterLoggingListener @253
LoggingSystem_ResetCurrentLoggingState=tier0_orig.LoggingSystem_ResetCurrentLoggingState @254
LoggingSystem_SetChannelColor=tier0_orig.LoggingSystem_SetChannelColor @255
LoggingSystem_SetChannelFlags=tier0_orig.LoggingSystem_SetChannelFlags @256
LoggingSystem_SetChannelSpewLevel=tier0_orig.LoggingSystem_SetChannelSpewLevel @257
LoggingSystem_SetChannelSpewLevelByName=tier0_orig.LoggingSystem_SetChannelSpewLevelByName @258
LoggingSystem_SetChannelSpewLevelByTag=tier0_orig.LoggingSystem_SetChannelSpewLevelByTag @259
LoggingSystem_SetLoggingResponsePolicy=tier0_orig.LoggingSystem_SetLoggingResponsePolicy @260
MemAllocScratch=tier0_orig.MemAllocScratch @261
MemFreeScratch=tier0_orig.MemFreeScratch @262
MinidumpSetUnhandledExceptionFunction=tier0_orig.MinidumpSetUnhandledExceptionFunction @263
Msg=tier0_orig.Msg @264
Plat_Alloc=tier0_orig.Plat_Alloc @265
Plat_ConvertToLocalTime=tier0_orig.Plat_ConvertToLocalTime @266
Plat_CreateWindow=tier0_orig.Plat_CreateWindow @267
Plat_DebugString=tier0_orig.Plat_DebugString @268
Plat_ExitProcess=tier0_orig.Plat_ExitProcess @269
Plat_FastVerifyHardwareKey=tier0_orig.Plat_FastVerifyHardwareKey @270
Plat_FloatTime=tier0_orig.Plat_FloatTime @271
Plat_Free=tier0_orig.Plat_Free @272
Plat_GetClockStart=tier0_orig.Plat_GetClockStart @273
Plat_GetCommandLine=tier0_orig.Plat_GetCommandLine @274
Plat_GetCommandLineA=tier0_orig.Plat_GetCommandLineA @275
Plat_GetDesktopResolution=tier0_orig.Plat_GetDesktopResolution @276
Plat_GetLocalTime=tier0_orig.Plat_GetLocalTime @277
Plat_GetMemPageSize=tier0_orig.Plat_GetMemPageSize @278
Plat_GetModuleFilename=tier0_orig.Plat_GetModuleFilename @279
Plat_GetOSVersion=tier0_orig.Plat_GetOSVersion @280
Plat_GetPagedPoolInfo=tier0_orig.Plat_GetPagedPoolInfo @281
Plat_GetProcAddress=tier0_orig.Plat_GetProcAddress @282
Plat_GetShellWindow=tier0_orig.Plat_GetShellWindow @283
Plat_GetTimeString=tier0_orig.Plat_GetTimeString @284
Plat_GetWindowClientSize=tier0_orig.Plat_GetWindowClientSize @285
Plat_IsInBenchmarkMode=tier0_orig.Plat_IsInBenchmarkMode @286
Plat_IsInDebugSession=tier0_orig.Plat_IsInDebugSession @287
Plat_IsInRenderToolMode=tier0_orig.Plat_IsInRenderToolMode @288
Plat_IsInToolMode=tier0_orig.Plat_IsInToolMode @289
Plat_IsWindowMinimized=tier0_orig.Plat_IsWindowMinimized @290
Plat_MSTime=tier0_orig.Plat_MSTime @291
Plat_MessageBox=tier0_orig.Plat_MessageBox @292
Plat_Realloc=tier0_orig.Plat_Realloc @293
Plat_ScreenToWindowCoords=tier0_orig.Plat_ScreenToWindowCoords @294
Plat_SetBenchmarkMode=tier0_orig.Plat_SetBenchmarkMode @295
Plat_SetRenderToolMode=tier0_orig.Plat_SetRenderToolMode @296
Plat_SetToolMode=tier0_orig.Plat_SetToolMode @297
Plat_SetWindowPos=tier0_orig.Plat_SetWindowPos @298
Plat_SetWindowTitle=tier0_orig.Plat_SetWindowTitle @299
Plat_SimpleLog=tier0_orig.Plat_SimpleLog @300
Plat_VerifyHardwareKey=tier0_orig.Plat_VerifyHardwareKey @301
Plat_VerifyHardwareKeyDriver=tier0_orig.Plat_VerifyHardwareKeyDriver @302
Plat_VerifyHardwareKeyPrompt=tier0_orig.Plat_VerifyHardwareKeyPrompt @303
Plat_WindowToScreenCoords=tier0_orig.Plat_WindowToScreenCoords @304
Plat_gmtime=tier0_orig.Plat_gmtime @305
Plat_timegm=tier0_orig.Plat_timegm @306
Print_ClearClientTime=tier0_orig.Print_ClearClientTime @307
Print_ClearServerTime=tier0_orig.Print_ClearServerTime @308
Print_EnableTimePrefix=tier0_orig.Print_EnableTimePrefix @309
Print_GetTimeStamp=tier0_orig.Print_GetTimeStamp @310
Print_SetClientTime=tier0_orig.Print_SetClientTime @311
Print_SetServerTime=tier0_orig.Print_SetServerTime @312
PublishAll=tier0_orig.PublishAll @313
PublishAllMiniProfilers=tier0_orig.PublishAllMiniProfilers @314
ReleaseThreadHandle=tier0_orig.ReleaseThreadHandle @315
ReportProgress=tier0_orig.ReportProgress @316
RestoreWin32ConsoleColor=tier0_orig.RestoreWin32ConsoleColor @317
RunTSListTests=tier0_orig.RunTSListTests @318
RunTSQueueTests=tier0_orig.RunTSQueueTests @319
SendRemoteErrorReport=tier0_orig.SendRemoteErrorReport @320
SendRemoteMinidump=tier0_orig.SendRemoteMinidump @321
SetAllAssertsDisabled=tier0_orig.SetAllAssertsDisabled @322
SetAssertDumpInfo=tier0_orig.SetAssertDumpInfo @323
SetErrorPrintCallback=tier0_orig.SetErrorPrintCallback @324
SetHardwareBreakpoint=tier0_orig.SetHardwareBreakpoint @325
SetIsKitOutsideOfStudioLANCallback=tier0_orig.SetIsKitOutsideOfStudioLANCallback @326
SetRemoteErrorReportCallback=tier0_orig.SetRemoteErrorReportCallback @327
SetRemoteMinidumpSendCallback=tier0_orig.SetRemoteMinidumpSendCallback @328
SetStackTranslationSymbolSearchPath=tier0_orig.SetStackTranslationSymbolSearchPath @329
SetTFOFileLogLevel=tier0_orig.SetTFOFileLogLevel @330
SetThreadedLoadLibraryFunc=tier0_orig.SetThreadedLoadLibraryFunc @331
SetWin32ConsoleColor=tier0_orig.SetWin32ConsoleColor @332
SetupWin32ConsoleIO=tier0_orig.SetupWin32ConsoleIO @333
ShouldUseNewAssertDialog=tier0_orig.ShouldUseNewAssertDialog @334
ShutdownPME=tier0_orig.ShutdownPME @335
StackToolsNotify_LoadedLibrary @336
ThreadGetCurrentHandle=tier0_orig.ThreadGetCurrentHandle @337
ThreadGetPriority=tier0_orig.ThreadGetPriority @338
ThreadInMainThread=tier0_orig.ThreadInMainThread @339
ThreadJoin=tier0_orig.ThreadJoin @340
ThreadSetAffinity=tier0_orig.ThreadSetAffinity @341
ThreadSetDebugName=tier0_orig.ThreadSetDebugName @342
ThreadSetPriority=tier0_orig.ThreadSetPriority @343
ThreadSleep=tier0_orig.ThreadSleep @344
Timer_GetTimeUS=tier0_orig.Timer_GetTimeUS @345
TranslateStackInfo=tier0_orig.TranslateStackInfo @346
UnitTestCount=tier0_orig.UnitTestCount @347
UnitTestInstallTestCase=tier0_orig.UnitTestInstallTestCase @348
Warning=tier0_orig.Warning @349
Warning_SpewCallStack=tier0_orig.Warning_SpewCallStack @350
WriteMiniDump=tier0_orig.WriteMiniDump @351
_AssertValidReadPtr=tier0_orig._AssertValidReadPtr @352
_AssertValidReadWritePtr=tier0_orig._AssertValidReadWritePtr @353
_AssertValidStringPtr=tier0_orig._AssertValidStringPtr @354
_AssertValidWritePtr=tier0_orig._AssertValidWritePtr @355
_CCallStackStatsGatherer_Internal_DumpStatsToFile=tier0_orig._CCallStackStatsGatherer_Internal_DumpStatsToFile @356
_Error_AlwaysSpewCallStack_Enable=tier0_orig._Error_AlwaysSpewCallStack_Enable @357
_Error_AlwaysSpewCallStack_Length=tier0_orig._Error_AlwaysSpewCallStack_Length @358
_ExitOnFatalAssert=tier0_orig._ExitOnFatalAssert @359
_Warning_AlwaysSpewCallStack_Enable=tier0_orig._Warning_AlwaysSpewCallStack_Enable @360
_Warning_AlwaysSpewCallStack_Length=tier0_orig._Warning_AlwaysSpewCallStack_Length @361
g_ClockSpeed=tier0_orig.g_ClockSpeed @362
g_ClockSpeedMicrosecondsMultiplier=tier0_orig.g_ClockSpeedMicrosecondsMultiplier @363
g_ClockSpeedMillisecondsMultiplier=tier0_orig.g_ClockSpeedMillisecondsMultiplier @364
g_ClockSpeedSecondsMultiplier=tier0_orig.g_ClockSpeedSecondsMultiplier @365
g_dwClockSpeed=tier0_orig.g_dwClockSpeed @366
g_nMiniProfilerFrame=tier0_orig.g_nMiniProfilerFrame @367
g_pLastMiniProfiler=tier0_orig.g_pLastMiniProfiler @368
g_pOtherMiniProfilers=tier0_orig.g_pOtherMiniProfilers @369
g_pPhysicsMiniProfilers=tier0_orig.g_pPhysicsMiniProfilers @370
vtune=tier0_orig.vtune @371
CreateGlobalMemAlloc @372
g_pMemAllocSingleton @373 DATA
GetServerVMPtr @374